(lp1
(i__main__
Match
p2
(dp3
S'winner'
p4
S'Shot'
p5
sS'loser'
p6
S'Zach'
p7
sS'tourney'
p8
S'L@DU Lite Singles'
p9
sS'score'
p10
S'0-2'
p11
sS'date'
p12
cdatetime
datetime
p13
(S'\x07\xdf\x0b\x0e\x13,\x1e\x00\x00\x00'
ciso8601.iso8601
FixedOffset
p14
(I-5
I0
S'-05:00'
p15
tRp16
(dp17
S'_FixedOffset__offset'
p18
cdatetime
timedelta
p19
(I-1
I68400
I0
tRp20
sS'_FixedOffset__offset_minutes'
p21
I0
sS'_FixedOffset__name'
p22
g15
sS'_FixedOffset__offset_hours'
p23
I-5
sbtRp24
sS'Round'
p25
I1
sba(i__main__
Match
p26
(dp27
g4
S'3spoon'
p28
sg6
S'Tristan'
p29
sg8
g9
sg10
S'2-0'
p30
sg12
g13
(S'\x07\xdf\x0b\x0e\x14\x04"\x00\x00\x00'
g14
(I-5
I0
S'-05:00'
p31
tRp32
(dp33
g18
g19
(I-1
I68400
I0
tRp34
sg21
I0
sg22
g31
sg23
I-5
sbtRp35
sg25
I1
sba(i__main__
Match
p36
(dp37
g4
S'Sloth'
p38
sg6
S'Arashi'
p39
sg8
g9
sg10
S'0-2'
p40
sg12
g13
(S'\x07\xdf\x0b\x0e\x131\x06\x00\x00\x00'
g14
(I-5
I0
S'-05:00'
p41
tRp42
(dp43
g18
g19
(I-1
I68400
I0
tRp44
sg21
I0
sg22
g41
sg23
I-5
sbtRp45
sg25
I1
sba(i__main__
Match
p46
(dp47
g4
S'KP'
p48
sg6
S'Zant'
p49
sg8
g9
sg10
S'2-1'
p50
sg12
g13
(S'\x07\xdf\x0b\x0e\x133\x0f\x00\x00\x00'
g14
(I-5
I0
S'-05:00'
p51
tRp52
(dp53
g18
g19
(I-1
I68400
I0
tRp54
sg21
I0
sg22
g51
sg23
I-5
sbtRp55
sg25
I1
sba(i__main__
Match
p56
(dp57
g4
S'Troy'
p58
sg6
S'BFC'
p59
sg8
g9
sg10
S'1-2'
p60
sg12
g13
(S'\x07\xdf\x0b\x0e\x13:\x16\x00\x00\x00'
g14
(I-5
I0
S'-05:00'
p61
tRp62
(dp63
g18
g19
(I-1
I68400
I0
tRp64
sg21
I0
sg22
g61
sg23
I-5
sbtRp65
sg25
I1
sba(i__main__
Match
p66
(dp67
g4
S'Young Spudnugget'
p68
sg6
S'Jacob'
p69
sg8
g9
sg10
S'0-2'
p70
sg12
g13
(S'\x07\xdf\x0b\x0e\x13+4\x00\x00\x00'
g14
(I-5
I0
S'-05:00'
p71
tRp72
(dp73
g18
g19
(I-1
I68400
I0
tRp74
sg21
I0
sg22
g71
sg23
I-5
sbtRp75
sg25
I1
sba(i__main__
Match
p76
(dp77
g4
S'he | Hart'
p78
sg6
S'Pastor'
p79
sg8
g9
sg10
S'2-0'
p80
sg12
g13
(S'\x07\xdf\x0b\x0e\x13.*\x00\x00\x00'
g14
(I-5
I0
S'-05:00'
p81
tRp82
(dp83
g18
g19
(I-1
I68400
I0
tRp84
sg21
I0
sg22
g81
sg23
I-5
sbtRp85
sg25
I1
sba(i__main__
Match
p86
(dp87
g4
S'Seaghost'
p88
sg6
S'Alec'
p89
sg8
g9
sg10
S'2-0'
p90
sg12
g13
(S'\x07\xdf\x0b\x0e\x1304\x00\x00\x00'
g14
(I-5
I0
S'-05:00'
p91
tRp92
(dp93
g18
g19
(I-1
I68400
I0
tRp94
sg21
I0
sg22
g91
sg23
I-5
sbtRp95
sg25
I1
sba(i__main__
Match
p96
(dp97
g4
S'Beer Guy'
p98
sg6
S'Paradox'
p99
sg8
g9
sg10
S'1-2'
p100
sg12
g13
(S'\x07\xdf\x0b\x0e\x134\x11\x00\x00\x00'
g14
(I-5
I0
S'-05:00'
p101
tRp102
(dp103
g18
g19
(I-1
I68400
I0
tRp104
sg21
I0
sg22
g101
sg23
I-5
sbtRp105
sg25
I1
sba(i__main__
Match
p106
(dp107
g4
S'Smoops'
p108
sg6
S'Tempest'
p109
sg8
g9
sg10
S'0-2'
p110
sg12
g13
(S'\x07\xdf\x0b\x0e\x133:\x00\x00\x00'
g14
(I-5
I0
S'-05:00'
p111
tRp112
(dp113
g18
g19
(I-1
I68400
I0
tRp114
sg21
I0
sg22
g111
sg23
I-5
sbtRp115
sg25
I1
sba(i__main__
Match
p116
(dp117
g4
S'Tiny Rick'
p118
sg6
g5
sg8
g9
sg10
S'2-0'
p119
sg12
g13
(S'\x07\xdf\x0b\x0e\x140(\x00\x00\x00'
g14
(I-5
I0
S'-05:00'
p120
tRp121
(dp122
g18
g19
(I-1
I68400
I0
tRp123
sg21
I0
sg22
g120
sg23
I-5
sbtRp124
sg25
I2
sba(i__main__
Match
p125
(dp126
g4
S'Subjective F'
p127
sg6
S'TylerX5'
p128
sg8
g9
sg10
S'2-0'
p129
sg12
g13
(S'\x07\xdf\x0b\x0e\x13,\x08\x00\x00\x00'
g14
(I-5
I0
S'-05:00'
p130
tRp131
(dp132
g18
g19
(I-1
I68400
I0
tRp133
sg21
I0
sg22
g130
sg23
I-5
sbtRp134
sg25
I2
sba(i__main__
Match
p135
(dp136
g4
S'Anusaurus Wrecks'
p137
sg6
g28
sg8
g9
sg10
S'2-0'
p138
sg12
g13
(S'\x07\xdf\x0b\x0e\x14$\x14\x00\x00\x00'
g14
(I-5
I0
S'-05:00'
p139
tRp140
(dp141
g18
g19
(I-1
I68400
I0
tRp142
sg21
I0
sg22
g139
sg23
I-5
sbtRp143
sg25
I2
sba(i__main__
Match
p144
(dp145
g4
S'RKim'
p146
sg6
g38
sg8
g9
sg10
S'2-0'
p147
sg12
g13
(S'\x07\xdf\x0b\x0e\x139%\x00\x00\x00'
g14
(I-5
I0
S'-05:00'
p148
tRp149
(dp150
g18
g19
(I-1
I68400
I0
tRp151
sg21
I0
sg22
g148
sg23
I-5
sbtRp152
sg25
I2
sba(i__main__
Match
p153
(dp154
g4
S'PW | Vincessant'
p155
sg6
g48
sg8
g9
sg10
S'2-0'
p156
sg12
g13
(S'\x07\xdf\x0b\x0e\x14\x03\x14\x00\x00\x00'
g14
(I-5
I0
S'-05:00'
p157
tRp158
(dp159
g18
g19
(I-1
I68400
I0
tRp160
sg21
I0
sg22
g157
sg23
I-5
sbtRp161
sg25
I2
sba(i__main__
Match
p162
(dp163
g4
S'Fish Sticks'
p164
sg6
S'Silversteel'
p165
sg8
g9
sg10
S'2-1'
p166
sg12
g13
(S'\x07\xdf\x0b\x0e\x134&\x00\x00\x00'
g14
(I-5
I0
S'-05:00'
p167
tRp168
(dp169
g18
g19
(I-1
I68400
I0
tRp170
sg21
I0
sg22
g167
sg23
I-5
sbtRp171
sg25
I2
sba(i__main__
Match
p172
(dp173
g4
S'Vorosh'
p174
sg6
g58
sg8
g9
sg10
S'2-0'
p175
sg12
g13
(S'\x07\xdf\x0b\x0e\x14\x072\x00\x00\x00'
g14
(I-5
I0
S'-05:00'
p176
tRp177
(dp178
g18
g19
(I-1
I68400
I0
tRp179
sg21
I0
sg22
g176
sg23
I-5
sbtRp180
sg25
I2
sba(i__main__
Match
p181
(dp182
g4
S'1BM'
p183
sg6
S'Chrispy'
p184
sg8
g9
sg10
S'2-0'
p185
sg12
g13
(S'\x07\xdf\x0b\x0e\x14;\x0f\x00\x00\x00'
g14
(I-5
I0
S'-05:00'
p186
tRp187
(dp188
g18
g19
(I-1
I68400
I0
tRp189
sg21
I0
sg22
g186
sg23
I-5
sbtRp190
sg25
I2
sba(i__main__
Match
p191
(dp192
g4
S'R2DLiu'
p193
sg6
g68
sg8
g9
sg10
S'2-0'
p194
sg12
g13
(S'\x07\xdf\x0b\x0e\x14\x1e1\x00\x00\x00'
g14
(I-5
I0
S'-05:00'
p195
tRp196
(dp197
g18
g19
(I-1
I68400
I0
tRp198
sg21
I0
sg22
g195
sg23
I-5
sbtRp199
sg25
I2
sba(i__main__
Match
p200
(dp201
g4
S'Greg Glaze'
p202
sg6
S'Wiss'
p203
sg8
g9
sg10
S'2-1'
p204
sg12
g13
(S'\x07\xdf\x0b\x0e\x14\x15\x08\x00\x00\x00'
g14
(I-5
I0
S'-05:00'
p205
tRp206
(dp207
g18
g19
(I-1
I68400
I0
tRp208
sg21
I0
sg22
g205
sg23
I-5
sbtRp209
sg25
I2
sba(i__main__
Match
p210
(dp211
g4
S'Nicholas1024'
p212
sg6
g78
sg8
g9
sg10
S'2-0'
p213
sg12
g13
(S'\x07\xdf\x0b\x0e\x14\t%\x00\x00\x00'
g14
(I-5
I0
S'-05:00'
p214
tRp215
(dp216
g18
g19
(I-1
I68400
I0
tRp217
sg21
I0
sg22
g214
sg23
I-5
sbtRp218
sg25
I2
sba(i__main__
Match
p219
(dp220
g4
S'Mars'
p221
sg6
g88
sg8
g9
sg10
S'2-0'
p222
sg12
g13
(S'\x07\xdf\x0b\x0e\x14\x088\x00\x00\x00'
g14
(I-5
I0
S'-05:00'
p223
tRp224
(dp225
g18
g19
(I-1
I68400
I0
tRp226
sg21
I0
sg22
g223
sg23
I-5
sbtRp227
sg25
I2
sba(i__main__
Match
p228
(dp229
g4
S'TRK'
p230
sg6
g98
sg8
g9
sg10
S'2-0'
p231
sg12
g13
(S'\x07\xdf\x0b\x0e\x14\x03\x1b\x00\x00\x00'
g14
(I-5
I0
S'-05:00'
p232
tRp233
(dp234
g18
g19
(I-1
I68400
I0
tRp235
sg21
I0
sg22
g232
sg23
I-5
sbtRp236
sg25
I2
sba(i__main__
Match
p237
(dp238
g4
S'Nimbus'
p239
sg6
S'Fridge'
p240
sg8
g9
sg10
S'2-0'
p241
sg12
g13
(S'\x07\xdf\x0b\x0e\x13:\x00\x00\x00\x00'
g14
(I-5
I0
S'-05:00'
p242
tRp243
(dp244
g18
g19
(I-1
I68400
I0
tRp245
sg21
I0
sg22
g242
sg23
I-5
sbtRp246
sg25
I2
sba(i__main__
Match
p247
(dp248
g4
g108
sg6
S'Spoodbeast'
p249
sg8
g9
sg10
S'1-2'
p250
sg12
g13
(S'\x07\xdf\x0b\x0e\x14\x11\x16\x00\x00\x00'
g14
(I-5
I0
S'-05:00'
p251
tRp252
(dp253
g18
g19
(I-1
I68400
I0
tRp254
sg21
I0
sg22
g251
sg23
I-5
sbtRp255
sg25
I2
sba(i__main__
Match
p256
(dp257
g4
S'LunarNova'
p258
sg6
S'Edb1rd'
p259
sg8
g9
sg10
S'2-0'
p260
sg12
g13
(S'\x07\xdf\x0b\x0e\x14\x0e\x17\x00\x00\x00'
g14
(I-5
I0
S'-05:00'
p261
tRp262
(dp263
g18
g19
(I-1
I68400
I0
tRp264
sg21
I0
sg22
g261
sg23
I-5
sbtRp265
sg25
I2
sba(i__main__
Match
p266
(dp267
g4
g118
sg6
g127
sg8
g9
sg10
S'2-0'
p268
sg12
g13
(S'\x07\xdf\x0b\x0e\x15\x022\x00\x00\x00'
g14
(I-5
I0
S'-05:00'
p269
tRp270
(dp271
g18
g19
(I-1
I68400
I0
tRp272
sg21
I0
sg22
g269
sg23
I-5
sbtRp273
sg25
I3
sba(i__main__
Match
p274
(dp275
g4
g146
sg6
g137
sg8
g9
sg10
S'1-2'
p276
sg12
g13
(S'\x07\xdf\x0b\x0e\x15\x04\r\x00\x00\x00'
g14
(I-5
I0
S'-05:00'
p277
tRp278
(dp279
g18
g19
(I-1
I68400
I0
tRp280
sg21
I0
sg22
g277
sg23
I-5
sbtRp281
sg25
I3
sba(i__main__
Match
p282
(dp283
g4
g155
sg6
g164
sg8
g9
sg10
S'2-1'
p284
sg12
g13
(S'\x07\xdf\x0b\x0e\x14\x0f+\x00\x00\x00'
g14
(I-5
I0
S'-05:00'
p285
tRp286
(dp287
g18
g19
(I-1
I68400
I0
tRp288
sg21
I0
sg22
g285
sg23
I-5
sbtRp289
sg25
I3
sba(i__main__
Match
p290
(dp291
g4
g174
sg6
g183
sg8
g9
sg10
S'2-0'
p292
sg12
g13
(S'\x07\xdf\x0b\x0e\x15\x00\x1f\x00\x00\x00'
g14
(I-5
I0
S'-05:00'
p293
tRp294
(dp295
g18
g19
(I-1
I68400
I0
tRp296
sg21
I0
sg22
g293
sg23
I-5
sbtRp297
sg25
I3
sba(i__main__
Match
p298
(dp299
g4
g193
sg6
g202
sg8
g9
sg10
S'2-1'
p300
sg12
g13
(S'\x07\xdf\x0b\x0e\x15\n\x14\x00\x00\x00'
g14
(I-5
I0
S'-05:00'
p301
tRp302
(dp303
g18
g19
(I-1
I68400
I0
tRp304
sg21
I0
sg22
g301
sg23
I-5
sbtRp305
sg25
I3
sba(i__main__
Match
p306
(dp307
g4
g221
sg6
g212
sg8
g9
sg10
S'0-2'
p308
sg12
g13
(S'\x07\xdf\x0b\x0e\x14\x17\x1d\x00\x00\x00'
g14
(I-5
I0
S'-05:00'
p309
tRp310
(dp311
g18
g19
(I-1
I68400
I0
tRp312
sg21
I0
sg22
g309
sg23
I-5
sbtRp313
sg25
I3
sba(i__main__
Match
p314
(dp315
g4
g230
sg6
g239
sg8
g9
sg10
S'2-0'
p316
sg12
g13
(S'\x07\xdf\x0b\x0e\x15\x114\x00\x00\x00'
g14
(I-5
I0
S'-05:00'
p317
tRp318
(dp319
g18
g19
(I-1
I68400
I0
tRp320
sg21
I0
sg22
g317
sg23
I-5
sbtRp321
sg25
I3
sba(i__main__
Match
p322
(dp323
g4
g258
sg6
g108
sg8
g9
sg10
S'0-2'
p324
sg12
g13
(S'\x07\xdf\x0b\x0e\x14!2\x00\x00\x00'
g14
(I-5
I0
S'-05:00'
p325
tRp326
(dp327
g18
g19
(I-1
I68400
I0
tRp328
sg21
I0
sg22
g325
sg23
I-5
sbtRp329
sg25
I3
sba(i__main__
Match
p330
(dp331
g4
g118
sg6
g146
sg8
g9
sg10
S'2-0'
p332
sg12
g13
(S'\x07\xdf\x0b\x0e\x15\x13\x19\x00\x00\x00'
g14
(I-5
I0
S'-05:00'
p333
tRp334
(dp335
g18
g19
(I-1
I68400
I0
tRp336
sg21
I0
sg22
g333
sg23
I-5
sbtRp337
sg25
I4
sba(i__main__
Match
p338
(dp339
g4
g155
sg6
g174
sg8
g9
sg10
S'2-0'
p340
sg12
g13
(S'\x07\xdf\x0b\x0e\x15\x1b\x1b\x00\x00\x00'
g14
(I-5
I0
S'-05:00'
p341
tRp342
(dp343
g18
g19
(I-1
I68400
I0
tRp344
sg21
I0
sg22
g341
sg23
I-5
sbtRp345
sg25
I4
sba(i__main__
Match
p346
(dp347
g4
g193
sg6
g221
sg8
g9
sg10
S'2-0'
p348
sg12
g13
(S'\x07\xdf\x0b\x0f\x000\r\x00\x00\x00'
g14
(I-5
I0
S'-05:00'
p349
tRp350
(dp351
g18
g19
(I-1
I68400
I0
tRp352
sg21
I0
sg22
g349
sg23
I-5
sbtRp353
sg25
I4
sba(i__main__
Match
p354
(dp355
g4
g230
sg6
g258
sg8
g9
sg10
S'2-0'
p356
sg12
g13
(S'\x07\xdf\x0b\x0e\x15"\x1a\x00\x00\x00'
g14
(I-5
I0
S'-05:00'
p357
tRp358
(dp359
g18
g19
(I-1
I68400
I0
tRp360
sg21
I0
sg22
g357
sg23
I-5
sbtRp361
sg25
I4
sba(i__main__
Match
p362
(dp363
g4
g118
sg6
g155
sg8
g9
sg10
S'2-1'
p364
sg12
g13
(S'\x07\xdf\x0b\x0e\x151&\x00\x00\x00'
g14
(I-5
I0
S'-05:00'
p365
tRp366
(dp367
g18
g19
(I-1
I68400
I0
tRp368
sg21
I0
sg22
g365
sg23
I-5
sbtRp369
sg25
I5
sba(i__main__
Match
p370
(dp371
g4
g193
sg6
g230
sg8
g9
sg10
S'2-1'
p372
sg12
g13
(S'\x07\xdf\x0b\x0e\x15./\x00\x00\x00'
g14
(I-5
I0
S'-05:00'
p373
tRp374
(dp375
g18
g19
(I-1
I68400
I0
tRp376
sg21
I0
sg22
g373
sg23
I-5
sbtRp377
sg25
I5
sba(i__main__
Match
p378
(dp379
g4
g193
sg6
g118
sg8
g9
sg10
S'1-3'
p380
sg12
g13
(S'\x07\xdf\x0b\x0e\x16\x02(\x00\x00\x00'
g14
(I-5
I0
S'-05:00'
p381
tRp382
(dp383
g18
g19
(I-1
I68400
I0
tRp384
sg21
I0
sg22
g381
sg23
I-5
sbtRp385
sg25
I6
sba(i__main__
Match
p386
(dp387
g4
g259
sg6
g7
sg8
g9
sg10
S'2-0'
p388
sg12
g13
(S'\x07\xdf\x0b\x0e\x14\x1b+\x00\x00\x00'
g14
(I-5
I0
S'-05:00'
p389
tRp390
(dp391
g18
g19
(I-1
I68400
I0
tRp392
sg21
I0
sg22
g389
sg23
I-5
sbtRp393
sg25
I-1
sba(i__main__
Match
p394
(dp395
g4
g240
sg6
g29
sg8
g9
sg10
S'2-0'
p396
sg12
g13
(S'\x07\xdf\x0b\x0e\x14\x0c&\x00\x00\x00'
g14
(I-5
I0
S'-05:00'
p397
tRp398
(dp399
g18
g19
(I-1
I68400
I0
tRp400
sg21
I0
sg22
g397
sg23
I-5
sbtRp401
sg25
I-1
sba(i__main__
Match
p402
(dp403
g4
g39
sg6
g98
sg8
g9
sg10
S'1-2'
p404
sg12
g13
(S'\x07\xdf\x0b\x0e\x14\x19\x05\x00\x00\x00'
g14
(I-5
I0
S'-05:00'
p405
tRp406
(dp407
g18
g19
(I-1
I68400
I0
tRp408
sg21
I0
sg22
g405
sg23
I-5
sbtRp409
sg25
I-1
sba(i__main__
Match
p410
(dp411
g4
g88
sg6
g49
sg8
g9
sg10
S'2-0'
p412
sg12
g13
(S'\x07\xdf\x0b\x0e\x14\x18\x10\x00\x00\x00'
g14
(I-5
I0
S'-05:00'
p413
tRp414
(dp415
g18
g19
(I-1
I68400
I0
tRp416
sg21
I0
sg22
g413
sg23
I-5
sbtRp417
sg25
I-1
sba(i__main__
Match
p418
(dp419
g4
g59
sg6
g203
sg8
g9
sg10
S'1-2'
p420
sg12
g13
(S'\x07\xdf\x0b\x0e\x14$#\x00\x00\x00'
g14
(I-5
I0
S'-05:00'
p421
tRp422
(dp423
g18
g19
(I-1
I68400
I0
tRp424
sg21
I0
sg22
g421
sg23
I-5
sbtRp425
sg25
I-1
sba(i__main__
Match
p426
(dp427
g4
g184
sg6
g69
sg8
g9
sg10
S'2-0'
p428
sg12
g13
(S'\x07\xdf\x0b\x0e\x15\r\x1a\x00\x00\x00'
g14
(I-5
I0
S'-05:00'
p429
tRp430
(dp431
g18
g19
(I-1
I68400
I0
tRp432
sg21
I0
sg22
g429
sg23
I-5
sbtRp433
sg25
I-1
sba(i__main__
Match
p434
(dp435
g4
g165
sg6
g79
sg8
g9
sg10
S'2-0'
p436
sg12
g13
(S'\x07\xdf\x0b\x0e\x14\x02;\x00\x00\x00'
g14
(I-5
I0
S'-05:00'
p437
tRp438
(dp439
g18
g19
(I-1
I68400
I0
tRp440
sg21
I0
sg22
g437
sg23
I-5
sbtRp441
sg25
I-1
sba(i__main__
Match
p442
(dp443
g4
g89
sg6
g48
sg8
g9
sg10
S'0-2'
p444
sg12
g13
(S'\x07\xdf\x0b\x0e\x14\x18/\x00\x00\x00'
g14
(I-5
I0
S'-05:00'
p445
tRp446
(dp447
g18
g19
(I-1
I68400
I0
tRp448
sg21
I0
sg22
g445
sg23
I-5
sbtRp449
sg25
I-1
sba(i__main__
Match
p450
(dp451
g4
g38
sg6
g99
sg8
g9
sg10
S'2-1'
p452
sg12
g13
(S'\x07\xdf\x0b\x0e\x14 \x1c\x00\x00\x00'
g14
(I-5
I0
S'-05:00'
p453
tRp454
(dp455
g18
g19
(I-1
I68400
I0
tRp456
sg21
I0
sg22
g453
sg23
I-5
sbtRp457
sg25
I-1
sba(i__main__
Match
p458
(dp459
g4
g109
sg6
g128
sg8
g9
sg10
S'1-2'
p460
sg12
g13
(S'\x07\xdf\x0b\x0e\x15\x05\x02\x00\x00\x00'
g14
(I-5
I0
S'-05:00'
p461
tRp462
(dp463
g18
g19
(I-1
I68400
I0
tRp464
sg21
I0
sg22
g461
sg23
I-5
sbtRp465
sg25
I-1
sba(i__main__
Match
p466
(dp467
g4
g249
sg6
g259
sg8
g9
sg10
S'2-1'
p468
sg12
g13
(S"\x07\xdf\x0b\x0e\x14'\x06\x00\x00\x00"
g14
(I-5
I0
S'-05:00'
p469
tRp470
(dp471
g18
g19
(I-1
I68400
I0
tRp472
sg21
I0
sg22
g469
sg23
I-5
sbtRp473
sg25
I-2
sba(i__main__
Match
p474
(dp475
g4
g39
sg6
g240
sg8
g9
sg10
S'0-2'
p476
sg12
g13
(S'\x07\xdf\x0b\x0e\x14-\x18\x00\x00\x00'
g14
(I-5
I0
S'-05:00'
p477
tRp478
(dp479
g18
g19
(I-1
I68400
I0
tRp480
sg21
I0
sg22
g477
sg23
I-5
sbtRp481
sg25
I-2
sba(i__main__
Match
p482
(dp483
g4
g88
sg6
g78
sg8
g9
sg10
S'1-2'
p484
sg12
g13
(S'\x07\xdf\x0b\x0e\x14#!\x00\x00\x00'
g14
(I-5
I0
S'-05:00'
p485
tRp486
(dp487
g18
g19
(I-1
I68400
I0
tRp488
sg21
I0
sg22
g485
sg23
I-5
sbtRp489
sg25
I-2
sba(i__main__
Match
p490
(dp491
g4
g68
sg6
g59
sg8
g9
sg10
S'2-0'
p492
sg12
g13
(S'\x07\xdf\x0b\x0e\x14,7\x00\x00\x00'
g14
(I-5
I0
S'-05:00'
p493
tRp494
(dp495
g18
g19
(I-1
I68400
I0
tRp496
sg21
I0
sg22
g493
sg23
I-5
sbtRp497
sg25
I-2
sba(i__main__
Match
p498
(dp499
g4
g184
sg6
g58
sg8
g9
sg10
S'0-2'
p500
sg12
g13
(S'\x07\xdf\x0b\x0e\x15\x15;\x00\x00\x00'
g14
(I-5
I0
S'-05:00'
p501
tRp502
(dp503
g18
g19
(I-1
I68400
I0
tRp504
sg21
I0
sg22
g501
sg23
I-5
sbtRp505
sg25
I-2
sba(i__main__
Match
p506
(dp507
g4
g89
sg6
g165
sg8
g9
sg10
S'1-2'
p508
sg12
g13
(S'\x07\xdf\x0b\x0e\x14-\x0c\x00\x00\x00'
g14
(I-5
I0
S'-05:00'
p509
tRp510
(dp511
g18
g19
(I-1
I68400
I0
tRp512
sg21
I0
sg22
g509
sg23
I-5
sbtRp513
sg25
I-2
sba(i__main__
Match
p514
(dp515
g4
g28
sg6
g38
sg8
g9
sg10
S'2-0'
p516
sg12
g13
(S'\x07\xdf\x0b\x0e\x140\x1a\x00\x00\x00'
g14
(I-5
I0
S'-05:00'
p517
tRp518
(dp519
g18
g19
(I-1
I68400
I0
tRp520
sg21
I0
sg22
g517
sg23
I-5
sbtRp521
sg25
I-2
sba(i__main__
Match
p522
(dp523
g4
g109
sg6
g5
sg8
g9
sg10
S'1-2'
p524
sg12
g13
(S'\x07\xdf\x0b\x0e\x14;,\x00\x00\x00'
g14
(I-5
I0
S'-05:00'
p525
tRp526
(dp527
g18
g19
(I-1
I68400
I0
tRp528
sg21
I0
sg22
g525
sg23
I-5
sbtRp529
sg25
I-2
sba(i__main__
Match
p530
(dp531
g4
g249
sg6
g183
sg8
g9
sg10
S'1-2'
p532
sg12
g13
(S'\x07\xdf\x0b\x0e\x15\x0c4\x00\x00\x00'
g14
(I-5
I0
S'-05:00'
p533
tRp534
(dp535
g18
g19
(I-1
I68400
I0
tRp536
sg21
I0
sg22
g533
sg23
I-5
sbtRp537
sg25
I-3
sba(i__main__
Match
p538
(dp539
g4
g164
sg6
g39
sg8
g9
sg10
S'2-0'
p540
sg12
g13
(S'\x07\xdf\x0b\x0e\x14-\x1e\x00\x00\x00'
g14
(I-5
I0
S'-05:00'
p541
tRp542
(dp543
g18
g19
(I-1
I68400
I0
tRp544
sg21
I0
sg22
g541
sg23
I-5
sbtRp545
sg25
I-3
sba(i__main__
Match
p546
(dp547
g4
g137
sg6
g88
sg8
g9
sg10
S'2-0'
p548
sg12
g13
(S'\x07\xdf\x0b\x0e\x15\x1b)\x00\x00\x00'
g14
(I-5
I0
S'-05:00'
p549
tRp550
(dp551
g18
g19
(I-1
I68400
I0
tRp552
sg21
I0
sg22
g549
sg23
I-5
sbtRp553
sg25
I-3
sba(i__main__
Match
p554
(dp555
g4
g127
sg6
g68
sg8
g9
sg10
S'2-0'
p556
sg12
g13
(S'\x07\xdf\x0b\x0e\x15\t\x0e\x00\x00\x00'
g14
(I-5
I0
S'-05:00'
p557
tRp558
(dp559
g18
g19
(I-1
I68400
I0
tRp560
sg21
I0
sg22
g557
sg23
I-5
sbtRp561
sg25
I-3
sba(i__main__
Match
p562
(dp563
g4
g184
sg6
g108
sg8
g9
sg10
S'0-2'
p564
sg12
g13
(S'\x07\xdf\x0b\x0e\x15 \x08\x00\x00\x00'
g14
(I-5
I0
S'-05:00'
p565
tRp566
(dp567
g18
g19
(I-1
I68400
I0
tRp568
sg21
I0
sg22
g565
sg23
I-5
sbtRp569
sg25
I-3
sba(i__main__
Match
p570
(dp571
g4
g239
sg6
g89
sg8
g9
sg10
S'2-1'
p572
sg12
g13
(S'\x07\xdf\x0b\x0e\x15$\x1e\x00\x00\x00'
g14
(I-5
I0
S'-05:00'
p573
tRp574
(dp575
g18
g19
(I-1
I68400
I0
tRp576
sg21
I0
sg22
g573
sg23
I-5
sbtRp577
sg25
I-3
sba(i__main__
Match
p578
(dp579
g4
g212
sg6
g28
sg8
g9
sg10
S'2-1'
p580
sg12
g13
(S'\x07\xdf\x0b\x0e\x15\x00\x0f\x00\x00\x00'
g14
(I-5
I0
S'-05:00'
p581
tRp582
(dp583
g18
g19
(I-1
I68400
I0
tRp584
sg21
I0
sg22
g581
sg23
I-5
sbtRp585
sg25
I-3
sba(i__main__
Match
p586
(dp587
g4
g109
sg6
g202
sg8
g9
sg10
S'1-2'
p588
sg12
g13
(S'\x07\xdf\x0b\x0e\x15\x1b\x13\x00\x00\x00'
g14
(I-5
I0
S'-05:00'
p589
tRp590
(dp591
g18
g19
(I-1
I68400
I0
tRp592
sg21
I0
sg22
g589
sg23
I-5
sbtRp593
sg25
I-3
sba(i__main__
Match
p594
(dp595
g4
g164
sg6
g249
sg8
g9
sg10
S'0-2'
p596
sg12
g13
(S'\x07\xdf\x0b\x0e\x15\x17\x12\x00\x00\x00'
g14
(I-5
I0
S'-05:00'
p597
tRp598
(dp599
g18
g19
(I-1
I68400
I0
tRp600
sg21
I0
sg22
g597
sg23
I-5
sbtRp601
sg25
I-4
sba(i__main__
Match
p602
(dp603
g4
g137
sg6
g127
sg8
g9
sg10
S'2-0'
p604
sg12
g13
(S'\x07\xdf\x0b\x0e\x15!"\x00\x00\x00'
g14
(I-5
I0
S'-05:00'
p605
tRp606
(dp607
g18
g19
(I-1
I68400
I0
tRp608
sg21
I0
sg22
g605
sg23
I-5
sbtRp609
sg25
I-4
sba(i__main__
Match
p610
(dp611
g4
g239
sg6
g184
sg8
g9
sg10
S'0-2'
p612
sg12
g13
(S'\x07\xdf\x0b\x0e\x15/\x10\x00\x00\x00'
g14
(I-5
I0
S'-05:00'
p613
tRp614
(dp615
g18
g19
(I-1
I68400
I0
tRp616
sg21
I0
sg22
g613
sg23
I-5
sbtRp617
sg25
I-4
sba(i__main__
Match
p618
(dp619
g4
g212
sg6
g109
sg8
g9
sg10
S'2-0'
p620
sg12
g13
(S'\x07\xdf\x0b\x0e\x15"\x0f\x00\x00\x00'
g14
(I-5
I0
S'-05:00'
p621
tRp622
(dp623
g18
g19
(I-1
I68400
I0
tRp624
sg21
I0
sg22
g621
sg23
I-5
sbtRp625
sg25
I-4
sba(i__main__
Match
p626
(dp627
g4
g164
sg6
g221
sg8
g9
sg10
S'1-2'
p628
sg12
g13
(S'\x07\xdf\x0b\x0e\x15#3\x00\x00\x00'
g14
(I-5
I0
S'-05:00'
p629
tRp630
(dp631
g18
g19
(I-1
I68400
I0
tRp632
sg21
I0
sg22
g629
sg23
I-5
sbtRp633
sg25
I-5
sba(i__main__
Match
p634
(dp635
g4
g137
sg6
g258
sg8
g9
sg10
S'0-2'
p636
sg12
g13
(S'\x07\xdf\x0b\x0e\x15/\x02\x00\x00\x00'
g14
(I-5
I0
S'-05:00'
p637
tRp638
(dp639
g18
g19
(I-1
I68400
I0
tRp640
sg21
I0
sg22
g637
sg23
I-5
sbtRp641
sg25
I-5
sba(i__main__
Match
p642
(dp643
g4
g146
sg6
g239
sg8
g9
sg10
S'2-1'
p644
sg12
g13
(S'\x07\xdf\x0b\x0e\x16\x012\x00\x00\x00'
g14
(I-5
I0
S'-05:00'
p645
tRp646
(dp647
g18
g19
(I-1
I68400
I0
tRp648
sg21
I0
sg22
g645
sg23
I-5
sbtRp649
sg25
I-5
sba(i__main__
Match
p650
(dp651
g4
g212
sg6
g174
sg8
g9
sg10
S'0-2'
p652
sg12
g13
(S'\x07\xdf\x0b\x0e\x15*4\x00\x00\x00'
g14
(I-5
I0
S'-05:00'
p653
tRp654
(dp655
g18
g19
(I-1
I68400
I0
tRp656
sg21
I0
sg22
g653
sg23
I-5
sbtRp657
sg25
I-5
sba(i__main__
Match
p658
(dp659
g4
g137
sg6
g164
sg8
g9
sg10
S'0-2'
p660
sg12
g13
(S'\x07\xdf\x0b\x0e\x156\x05\x00\x00\x00'
g14
(I-5
I0
S'-05:00'
p661
tRp662
(dp663
g18
g19
(I-1
I68400
I0
tRp664
sg21
I0
sg22
g661
sg23
I-5
sbtRp665
sg25
I-6
sba(i__main__
Match
p666
(dp667
g4
g212
sg6
g146
sg8
g9
sg10
S'1-2'
p668
sg12
g13
(S'\x07\xdf\x0b\x0e\x16\r#\x00\x00\x00'
g14
(I-5
I0
S'-05:00'
p669
tRp670
(dp671
g18
g19
(I-1
I68400
I0
tRp672
sg21
I0
sg22
g669
sg23
I-5
sbtRp673
sg25
I-6
sba(i__main__
Match
p674
(dp675
g4
g155
sg6
g137
sg8
g9
sg10
S'2-1'
p676
sg12
g13
(S'\x07\xdf\x0b\x0e\x16\x06\x0e\x00\x00\x00'
g14
(I-5
I0
S'-05:00'
p677
tRp678
(dp679
g18
g19
(I-1
I68400
I0
tRp680
sg21
I0
sg22
g677
sg23
I-5
sbtRp681
sg25
I-7
sba(i__main__
Match
p682
(dp683
g4
g212
sg6
g230
sg8
g9
sg10
S'1-2'
p684
sg12
g13
(S"\x07\xdf\x0b\x0e\x16\x1d'\x00\x00\x00"
g14
(I-5
I0
S'-05:00'
p685
tRp686
(dp687
g18
g19
(I-1
I68400
I0
tRp688
sg21
I0
sg22
g685
sg23
I-5
sbtRp689
sg25
I-7
sba(i__main__
Match
p690
(dp691
g4
g155
sg6
g212
sg8
g9
sg10
S'2-1'
p692
sg12
g13
(S'\x07\xdf\x0b\x0e\x16-\x15\x00\x00\x00'
g14
(I-5
I0
S'-05:00'
p693
tRp694
(dp695
g18
g19
(I-1
I68400
I0
tRp696
sg21
I0
sg22
g693
sg23
I-5
sbtRp697
sg25
I-8
sba(i__main__
Match
p698
(dp699
g4
g118
sg6
g155
sg8
g9
sg10
S'3-2'
p700
sg12
g13
(S'\x07\xdf\x0b\x0e\x17\x11.\x00\x00\x00'
g14
(I-5
I0
S'-05:00'
p701
tRp702
(dp703
g18
g19
(I-1
I68400
I0
tRp704
sg21
I0
sg22
g701
sg23
I-5
sbtRp705
sg25
I-9
sba(i__main__
Match
p706
(dp707
g4
g193
sg6
g118
sg8
g9
sg10
S'3-2'
p708
sg12
g13
(S'\x07\xdf\x0b\x0e\x17\x119\x00\x00\x00'
g14
(I-5
I0
S'-05:00'
p709
tRp710
(dp711
g18
g19
(I-1
I68400
I0
tRp712
sg21
I0
sg22
g709
sg23
I-5
sbtRp713
sg25
I7
sba.