(lp1
(i__main__
Player
p2
(dp3
S'rating'
p4
ccopy_reg
_reconstructor
p5
(ctrueskill
Rating
p6
c__builtin__
object
p7
NtRp8
(dp9
S'tau'
p10
F2.7923587373087053
sS'pi'
p11
F0.064354569335634534
sbsS'name'
p12
S'R2DLiu'
p13
sS'matches'
p14
(lp15
(i__main__
Match
p16
(dp17
S'winner'
p18
g13
sS'loser'
p19
S'Young Spudnugget'
p20
sS'tourney'
p21
S'L@DU Lite Singles'
p22
sS'score'
p23
S'2-0'
p24
sS'date'
p25
cdatetime
datetime
p26
(S'\x07\xdf\x0b\x0e\x14\x1e1\x00\x00\x00'
ciso8601.iso8601
FixedOffset
p27
(I-5
I0
S'-05:00'
p28
tRp29
(dp30
S'_FixedOffset__offset'
p31
cdatetime
timedelta
p32
(I-1
I68400
I0
tRp33
sS'_FixedOffset__offset_minutes'
p34
I0
sS'_FixedOffset__name'
p35
g28
sS'_FixedOffset__offset_hours'
p36
I-5
sbtRp37
sS'Round'
p38
I2
sba(i__main__
Match
p39
(dp40
g18
g13
sg19
S'Greg Glaze'
p41
sg21
g22
sg23
S'2-1'
p42
sg25
g26
(S'\x07\xdf\x0b\x0e\x15\n\x14\x00\x00\x00'
g27
(I-5
I0
S'-05:00'
p43
tRp44
(dp45
g31
g32
(I-1
I68400
I0
tRp46
sg34
I0
sg35
g43
sg36
I-5
sbtRp47
sg38
I3
sba(i__main__
Match
p48
(dp49
g18
g13
sg19
S'Mars'
p50
sg21
g22
sg23
S'2-0'
p51
sg25
g26
(S'\x07\xdf\x0b\x0f\x000\r\x00\x00\x00'
g27
(I-5
I0
S'-05:00'
p52
tRp53
(dp54
g31
g32
(I-1
I68400
I0
tRp55
sg34
I0
sg35
g52
sg36
I-5
sbtRp56
sg38
I4
sba(i__main__
Match
p57
(dp58
g18
g13
sg19
S'TRK'
p59
sg21
g22
sg23
S'2-1'
p60
sg25
g26
(S'\x07\xdf\x0b\x0e\x15./\x00\x00\x00'
g27
(I-5
I0
S'-05:00'
p61
tRp62
(dp63
g31
g32
(I-1
I68400
I0
tRp64
sg34
I0
sg35
g61
sg36
I-5
sbtRp65
sg38
I5
sba(i__main__
Match
p66
(dp67
g18
g13
sg19
S'Tiny Rick'
p68
sg21
g22
sg23
S'1-3'
p69
sg25
g26
(S'\x07\xdf\x0b\x0e\x16\x02(\x00\x00\x00'
g27
(I-5
I0
S'-05:00'
p70
tRp71
(dp72
g31
g32
(I-1
I68400
I0
tRp73
sg34
I0
sg35
g70
sg36
I-5
sbtRp74
sg38
I6
sba(i__main__
Match
p75
(dp76
g18
g13
sg19
g68
sg21
g22
sg23
S'3-2'
p77
sg25
g26
(S'\x07\xdf\x0b\x0e\x17\x119\x00\x00\x00'
g27
(I-5
I0
S'-05:00'
p78
tRp79
(dp80
g31
g32
(I-1
I68400
I0
tRp81
sg34
I0
sg35
g78
sg36
I-5
sbtRp82
sg38
I7
sbasS'wins'
p83
I6
sS'losses'
p84
I0
sS'rank'
p85
I127
sS'elo'
p86
I0
sba(i__main__
Player
p87
(dp88
g4
g5
(g6
g7
NtRp89
(dp90
g10
F2.9493563385727271
sg11
F0.076648603677199806
sbsg12
g68
sg14
(lp91
(i__main__
Match
p92
(dp93
g18
g68
sg19
S'Shot'
p94
sg21
g22
sg23
S'2-0'
p95
sg25
g26
(S'\x07\xdf\x0b\x0e\x140(\x00\x00\x00'
g27
(I-5
I0
S'-05:00'
p96
tRp97
(dp98
g31
g32
(I-1
I68400
I0
tRp99
sg34
I0
sg35
g96
sg36
I-5
sbtRp100
sg38
I2
sba(i__main__
Match
p101
(dp102
g18
g68
sg19
S'Subjective F'
p103
sg21
g22
sg23
S'2-0'
p104
sg25
g26
(S'\x07\xdf\x0b\x0e\x15\x022\x00\x00\x00'
g27
(I-5
I0
S'-05:00'
p105
tRp106
(dp107
g31
g32
(I-1
I68400
I0
tRp108
sg34
I0
sg35
g105
sg36
I-5
sbtRp109
sg38
I3
sba(i__main__
Match
p110
(dp111
g18
g68
sg19
S'RKim'
p112
sg21
g22
sg23
S'2-0'
p113
sg25
g26
(S'\x07\xdf\x0b\x0e\x15\x13\x19\x00\x00\x00'
g27
(I-5
I0
S'-05:00'
p114
tRp115
(dp116
g31
g32
(I-1
I68400
I0
tRp117
sg34
I0
sg35
g114
sg36
I-5
sbtRp118
sg38
I4
sba(i__main__
Match
p119
(dp120
g18
g68
sg19
S'PW | Vincessant'
p121
sg21
g22
sg23
S'2-1'
p122
sg25
g26
(S'\x07\xdf\x0b\x0e\x151&\x00\x00\x00'
g27
(I-5
I0
S'-05:00'
p123
tRp124
(dp125
g31
g32
(I-1
I68400
I0
tRp126
sg34
I0
sg35
g123
sg36
I-5
sbtRp127
sg38
I5
sbag66
a(i__main__
Match
p128
(dp129
g18
g68
sg19
g121
sg21
g22
sg23
S'3-2'
p130
sg25
g26
(S'\x07\xdf\x0b\x0e\x17\x11.\x00\x00\x00'
g27
(I-5
I0
S'-05:00'
p131
tRp132
(dp133
g31
g32
(I-1
I68400
I0
tRp134
sg34
I0
sg35
g131
sg36
I-5
sbtRp135
sg38
I-9
sbag75
asg83
I5
sg84
I2
sg85
I128
sg86
I0
sba(i__main__
Player
p136
(dp137
g4
g5
(g6
g7
NtRp138
(dp139
g10
F3.0119705680070541
sg11
F0.080386948182049833
sbsg12
g121
sg14
(lp140
(i__main__
Match
p141
(dp142
g18
g121
sg19
S'KP'
p143
sg21
g22
sg23
S'2-0'
p144
sg25
g26
(S'\x07\xdf\x0b\x0e\x14\x03\x14\x00\x00\x00'
g27
(I-5
I0
S'-05:00'
p145
tRp146
(dp147
g31
g32
(I-1
I68400
I0
tRp148
sg34
I0
sg35
g145
sg36
I-5
sbtRp149
sg38
I2
sba(i__main__
Match
p150
(dp151
g18
g121
sg19
S'Fish Sticks'
p152
sg21
g22
sg23
S'2-1'
p153
sg25
g26
(S'\x07\xdf\x0b\x0e\x14\x0f+\x00\x00\x00'
g27
(I-5
I0
S'-05:00'
p154
tRp155
(dp156
g31
g32
(I-1
I68400
I0
tRp157
sg34
I0
sg35
g154
sg36
I-5
sbtRp158
sg38
I3
sba(i__main__
Match
p159
(dp160
g18
g121
sg19
S'Vorosh'
p161
sg21
g22
sg23
S'2-0'
p162
sg25
g26
(S'\x07\xdf\x0b\x0e\x15\x1b\x1b\x00\x00\x00'
g27
(I-5
I0
S'-05:00'
p163
tRp164
(dp165
g31
g32
(I-1
I68400
I0
tRp166
sg34
I0
sg35
g163
sg36
I-5
sbtRp167
sg38
I4
sbag119
a(i__main__
Match
p168
(dp169
g18
g121
sg19
S'Anusaurus Wrecks'
p170
sg21
g22
sg23
S'2-1'
p171
sg25
g26
(S'\x07\xdf\x0b\x0e\x16\x06\x0e\x00\x00\x00'
g27
(I-5
I0
S'-05:00'
p172
tRp173
(dp174
g31
g32
(I-1
I68400
I0
tRp175
sg34
I0
sg35
g172
sg36
I-5
sbtRp176
sg38
I-7
sba(i__main__
Match
p177
(dp178
g18
g121
sg19
S'Nicholas1024'
p179
sg21
g22
sg23
S'2-1'
p180
sg25
g26
(S'\x07\xdf\x0b\x0e\x16-\x15\x00\x00\x00'
g27
(I-5
I0
S'-05:00'
p181
tRp182
(dp183
g31
g32
(I-1
I68400
I0
tRp184
sg34
I0
sg35
g181
sg36
I-5
sbtRp185
sg38
I-8
sbag128
asg83
I5
sg84
I2
sg85
I129
sg86
I0
sba(i__main__
Player
p186
(dp187
g4
g5
(g6
g7
NtRp188
(dp189
g10
F3.1007607230696754
sg11
F0.085405489156135092
sbsg12
g179
sg14
(lp190
(i__main__
Match
p191
(dp192
g18
g179
sg19
S'he | Hart'
p193
sg21
g22
sg23
S'2-0'
p194
sg25
g26
(S'\x07\xdf\x0b\x0e\x14\t%\x00\x00\x00'
g27
(I-5
I0
S'-05:00'
p195
tRp196
(dp197
g31
g32
(I-1
I68400
I0
tRp198
sg34
I0
sg35
g195
sg36
I-5
sbtRp199
sg38
I2
sba(i__main__
Match
p200
(dp201
g18
g50
sg19
g179
sg21
g22
sg23
S'0-2'
p202
sg25
g26
(S'\x07\xdf\x0b\x0e\x14\x17\x1d\x00\x00\x00'
g27
(I-5
I0
S'-05:00'
p203
tRp204
(dp205
g31
g32
(I-1
I68400
I0
tRp206
sg34
I0
sg35
g203
sg36
I-5
sbtRp207
sg38
I3
sba(i__main__
Match
p208
(dp209
g18
g179
sg19
S'3spoon'
p210
sg21
g22
sg23
S'2-1'
p211
sg25
g26
(S'\x07\xdf\x0b\x0e\x15\x00\x0f\x00\x00\x00'
g27
(I-5
I0
S'-05:00'
p212
tRp213
(dp214
g31
g32
(I-1
I68400
I0
tRp215
sg34
I0
sg35
g212
sg36
I-5
sbtRp216
sg38
I-3
sba(i__main__
Match
p217
(dp218
g18
g179
sg19
S'Tempest'
p219
sg21
g22
sg23
S'2-0'
p220
sg25
g26
(S'\x07\xdf\x0b\x0e\x15"\x0f\x00\x00\x00'
g27
(I-5
I0
S'-05:00'
p221
tRp222
(dp223
g31
g32
(I-1
I68400
I0
tRp224
sg34
I0
sg35
g221
sg36
I-5
sbtRp225
sg38
I-4
sba(i__main__
Match
p226
(dp227
g18
g179
sg19
g161
sg21
g22
sg23
S'0-2'
p228
sg25
g26
(S'\x07\xdf\x0b\x0e\x15*4\x00\x00\x00'
g27
(I-5
I0
S'-05:00'
p229
tRp230
(dp231
g31
g32
(I-1
I68400
I0
tRp232
sg34
I0
sg35
g229
sg36
I-5
sbtRp233
sg38
I-5
sba(i__main__
Match
p234
(dp235
g18
g179
sg19
g112
sg21
g22
sg23
S'1-2'
p236
sg25
g26
(S'\x07\xdf\x0b\x0e\x16\r#\x00\x00\x00'
g27
(I-5
I0
S'-05:00'
p237
tRp238
(dp239
g31
g32
(I-1
I68400
I0
tRp240
sg34
I0
sg35
g237
sg36
I-5
sbtRp241
sg38
I-6
sba(i__main__
Match
p242
(dp243
g18
g179
sg19
g59
sg21
g22
sg23
S'1-2'
p244
sg25
g26
(S"\x07\xdf\x0b\x0e\x16\x1d'\x00\x00\x00"
g27
(I-5
I0
S'-05:00'
p245
tRp246
(dp247
g31
g32
(I-1
I68400
I0
tRp248
sg34
I0
sg35
g245
sg36
I-5
sbtRp249
sg38
I-7
sbag177
asg83
I6
sg84
I2
sg85
I130
sg86
I0
sba(i__main__
Player
p250
(dp251
g4
g5
(g6
g7
NtRp252
(dp253
g10
F2.6355101132197314
sg11
F0.075819747275415308
sbsg12
g170
sg14
(lp254
(i__main__
Match
p255
(dp256
g18
g170
sg19
g210
sg21
g22
sg23
S'2-0'
p257
sg25
g26
(S'\x07\xdf\x0b\x0e\x14$\x14\x00\x00\x00'
g27
(I-5
I0
S'-05:00'
p258
tRp259
(dp260
g31
g32
(I-1
I68400
I0
tRp261
sg34
I0
sg35
g258
sg36
I-5
sbtRp262
sg38
I2
sba(i__main__
Match
p263
(dp264
g18
g112
sg19
g170
sg21
g22
sg23
S'1-2'
p265
sg25
g26
(S'\x07\xdf\x0b\x0e\x15\x04\r\x00\x00\x00'
g27
(I-5
I0
S'-05:00'
p266
tRp267
(dp268
g31
g32
(I-1
I68400
I0
tRp269
sg34
I0
sg35
g266
sg36
I-5
sbtRp270
sg38
I3
sba(i__main__
Match
p271
(dp272
g18
g170
sg19
S'Seaghost'
p273
sg21
g22
sg23
S'2-0'
p274
sg25
g26
(S'\x07\xdf\x0b\x0e\x15\x1b)\x00\x00\x00'
g27
(I-5
I0
S'-05:00'
p275
tRp276
(dp277
g31
g32
(I-1
I68400
I0
tRp278
sg34
I0
sg35
g275
sg36
I-5
sbtRp279
sg38
I-3
sba(i__main__
Match
p280
(dp281
g18
g170
sg19
g103
sg21
g22
sg23
S'2-0'
p282
sg25
g26
(S'\x07\xdf\x0b\x0e\x15!"\x00\x00\x00'
g27
(I-5
I0
S'-05:00'
p283
tRp284
(dp285
g31
g32
(I-1
I68400
I0
tRp286
sg34
I0
sg35
g283
sg36
I-5
sbtRp287
sg38
I-4
sba(i__main__
Match
p288
(dp289
g18
g170
sg19
S'LunarNova'
p290
sg21
g22
sg23
S'0-2'
p291
sg25
g26
(S'\x07\xdf\x0b\x0e\x15/\x02\x00\x00\x00'
g27
(I-5
I0
S'-05:00'
p292
tRp293
(dp294
g31
g32
(I-1
I68400
I0
tRp295
sg34
I0
sg35
g292
sg36
I-5
sbtRp296
sg38
I-5
sba(i__main__
Match
p297
(dp298
g18
g170
sg19
g152
sg21
g22
sg23
S'0-2'
p299
sg25
g26
(S'\x07\xdf\x0b\x0e\x156\x05\x00\x00\x00'
g27
(I-5
I0
S'-05:00'
p300
tRp301
(dp302
g31
g32
(I-1
I68400
I0
tRp303
sg34
I0
sg35
g300
sg36
I-5
sbtRp304
sg38
I-6
sbag168
asg83
I5
sg84
I2
sg85
I131
sg86
I0
sba(i__main__
Player
p305
(dp306
g4
g5
(g6
g7
NtRp307
(dp308
g10
F1.7535071811712957
sg11
F0.053761227137646528
sbsg12
g59
sg14
(lp309
(i__main__
Match
p310
(dp311
g18
g59
sg19
S'Beer Guy'
p312
sg21
g22
sg23
S'2-0'
p313
sg25
g26
(S'\x07\xdf\x0b\x0e\x14\x03\x1b\x00\x00\x00'
g27
(I-5
I0
S'-05:00'
p314
tRp315
(dp316
g31
g32
(I-1
I68400
I0
tRp317
sg34
I0
sg35
g314
sg36
I-5
sbtRp318
sg38
I2
sba(i__main__
Match
p319
(dp320
g18
g59
sg19
S'Nimbus'
p321
sg21
g22
sg23
S'2-0'
p322
sg25
g26
(S'\x07\xdf\x0b\x0e\x15\x114\x00\x00\x00'
g27
(I-5
I0
S'-05:00'
p323
tRp324
(dp325
g31
g32
(I-1
I68400
I0
tRp326
sg34
I0
sg35
g323
sg36
I-5
sbtRp327
sg38
I3
sba(i__main__
Match
p328
(dp329
g18
g59
sg19
g290
sg21
g22
sg23
S'2-0'
p330
sg25
g26
(S'\x07\xdf\x0b\x0e\x15"\x1a\x00\x00\x00'
g27
(I-5
I0
S'-05:00'
p331
tRp332
(dp333
g31
g32
(I-1
I68400
I0
tRp334
sg34
I0
sg35
g331
sg36
I-5
sbtRp335
sg38
I4
sbag57
ag242
asg83
I3
sg84
I2
sg85
I132
sg86
I0
sba(i__main__
Player
p336
(dp337
g4
g5
(g6
g7
NtRp338
(dp339
g10
F2.0394436783618679
sg11
F0.062885015187394561
sbsg12
g152
sg14
(lp340
(i__main__
Match
p341
(dp342
g18
g152
sg19
S'Silversteel'
p343
sg21
g22
sg23
S'2-1'
p344
sg25
g26
(S'\x07\xdf\x0b\x0e\x134&\x00\x00\x00'
g27
(I-5
I0
S'-05:00'
p345
tRp346
(dp347
g31
g32
(I-1
I68400
I0
tRp348
sg34
I0
sg35
g345
sg36
I-5
sbtRp349
sg38
I2
sbag150
a(i__main__
Match
p350
(dp351
g18
g152
sg19
S'Arashi'
p352
sg21
g22
sg23
S'2-0'
p353
sg25
g26
(S'\x07\xdf\x0b\x0e\x14-\x1e\x00\x00\x00'
g27
(I-5
I0
S'-05:00'
p354
tRp355
(dp356
g31
g32
(I-1
I68400
I0
tRp357
sg34
I0
sg35
g354
sg36
I-5
sbtRp358
sg38
I-3
sba(i__main__
Match
p359
(dp360
g18
g152
sg19
S'Spoodbeast'
p361
sg21
g22
sg23
S'0-2'
p362
sg25
g26
(S'\x07\xdf\x0b\x0e\x15\x17\x12\x00\x00\x00'
g27
(I-5
I0
S'-05:00'
p363
tRp364
(dp365
g31
g32
(I-1
I68400
I0
tRp366
sg34
I0
sg35
g363
sg36
I-5
sbtRp367
sg38
I-4
sba(i__main__
Match
p368
(dp369
g18
g152
sg19
g50
sg21
g22
sg23
S'1-2'
p370
sg25
g26
(S'\x07\xdf\x0b\x0e\x15#3\x00\x00\x00'
g27
(I-5
I0
S'-05:00'
p371
tRp372
(dp373
g31
g32
(I-1
I68400
I0
tRp374
sg34
I0
sg35
g371
sg36
I-5
sbtRp375
sg38
I-5
sbag297
asg83
I4
sg84
I2
sg85
I133
sg86
I0
sba(i__main__
Player
p376
(dp377
g4
g5
(g6
g7
NtRp378
(dp379
g10
F1.8182680905657862
sg11
F0.056399870187876629
sbsg12
g112
sg14
(lp380
(i__main__
Match
p381
(dp382
g18
g112
sg19
S'Sloth'
p383
sg21
g22
sg23
S'2-0'
p384
sg25
g26
(S'\x07\xdf\x0b\x0e\x139%\x00\x00\x00'
g27
(I-5
I0
S'-05:00'
p385
tRp386
(dp387
g31
g32
(I-1
I68400
I0
tRp388
sg34
I0
sg35
g385
sg36
I-5
sbtRp389
sg38
I2
sbag263
ag110
a(i__main__
Match
p390
(dp391
g18
g112
sg19
g321
sg21
g22
sg23
S'2-1'
p392
sg25
g26
(S'\x07\xdf\x0b\x0e\x16\x012\x00\x00\x00'
g27
(I-5
I0
S'-05:00'
p393
tRp394
(dp395
g31
g32
(I-1
I68400
I0
tRp396
sg34
I0
sg35
g393
sg36
I-5
sbtRp397
sg38
I-5
sbag234
asg83
I3
sg84
I2
sg85
I134
sg86
I0
sba(i__main__
Player
p398
(dp399
g4
g5
(g6
g7
NtRp400
(dp401
g10
F1.6413981257134005
sg11
F0.054133469715191139
sbsg12
g321
sg14
(lp402
(i__main__
Match
p403
(dp404
g18
g321
sg19
S'Fridge'
p405
sg21
g22
sg23
S'2-0'
p406
sg25
g26
(S'\x07\xdf\x0b\x0e\x13:\x00\x00\x00\x00'
g27
(I-5
I0
S'-05:00'
p407
tRp408
(dp409
g31
g32
(I-1
I68400
I0
tRp410
sg34
I0
sg35
g407
sg36
I-5
sbtRp411
sg38
I2
sbag319
a(i__main__
Match
p412
(dp413
g18
g321
sg19
S'Alec'
p414
sg21
g22
sg23
S'2-1'
p415
sg25
g26
(S'\x07\xdf\x0b\x0e\x15$\x1e\x00\x00\x00'
g27
(I-5
I0
S'-05:00'
p416
tRp417
(dp418
g31
g32
(I-1
I68400
I0
tRp419
sg34
I0
sg35
g416
sg36
I-5
sbtRp420
sg38
I-3
sba(i__main__
Match
p421
(dp422
g18
g321
sg19
S'Chrispy'
p423
sg21
g22
sg23
S'0-2'
p424
sg25
g26
(S'\x07\xdf\x0b\x0e\x15/\x10\x00\x00\x00'
g27
(I-5
I0
S'-05:00'
p425
tRp426
(dp427
g31
g32
(I-1
I68400
I0
tRp428
sg34
I0
sg35
g425
sg36
I-5
sbtRp429
sg38
I-4
sbag390
asg83
I3
sg84
I2
sg85
I135
sg86
I0
sba(i__main__
Player
p430
(dp431
g4
g5
(g6
g7
NtRp432
(dp433
g10
F1.3069999406644419
sg11
F0.044969081090191661
sbsg12
g50
sg14
(lp434
(i__main__
Match
p435
(dp436
g18
g50
sg19
g273
sg21
g22
sg23
S'2-0'
p437
sg25
g26
(S'\x07\xdf\x0b\x0e\x14\x088\x00\x00\x00'
g27
(I-5
I0
S'-05:00'
p438
tRp439
(dp440
g31
g32
(I-1
I68400
I0
tRp441
sg34
I0
sg35
g438
sg36
I-5
sbtRp442
sg38
I2
sbag200
ag48
ag368
asg83
I2
sg84
I2
sg85
I136
sg86
I0
sba(i__main__
Player
p443
(dp444
g4
g5
(g6
g7
NtRp445
(dp446
g10
F1.2628136411304776
sg11
F0.04374293016269902
sbsg12
g161
sg14
(lp447
(i__main__
Match
p448
(dp449
g18
g161
sg19
S'Troy'
p450
sg21
g22
sg23
S'2-0'
p451
sg25
g26
(S'\x07\xdf\x0b\x0e\x14\x072\x00\x00\x00'
g27
(I-5
I0
S'-05:00'
p452
tRp453
(dp454
g31
g32
(I-1
I68400
I0
tRp455
sg34
I0
sg35
g452
sg36
I-5
sbtRp456
sg38
I2
sba(i__main__
Match
p457
(dp458
g18
g161
sg19
S'1BM'
p459
sg21
g22
sg23
S'2-0'
p460
sg25
g26
(S'\x07\xdf\x0b\x0e\x15\x00\x1f\x00\x00\x00'
g27
(I-5
I0
S'-05:00'
p461
tRp462
(dp463
g31
g32
(I-1
I68400
I0
tRp464
sg34
I0
sg35
g461
sg36
I-5
sbtRp465
sg38
I3
sbag159
ag226
asg83
I2
sg84
I2
sg85
I137
sg86
I0
sba(i__main__
Player
p466
(dp467
g4
g5
(g6
g7
NtRp468
(dp469
g10
F1.2494778056074931
sg11
F0.043432394567664755
sbsg12
g290
sg14
(lp470
(i__main__
Match
p471
(dp472
g18
g290
sg19
S'Edb1rd'
p473
sg21
g22
sg23
S'2-0'
p474
sg25
g26
(S'\x07\xdf\x0b\x0e\x14\x0e\x17\x00\x00\x00'
g27
(I-5
I0
S'-05:00'
p475
tRp476
(dp477
g31
g32
(I-1
I68400
I0
tRp478
sg34
I0
sg35
g475
sg36
I-5
sbtRp479
sg38
I2
sba(i__main__
Match
p480
(dp481
g18
g290
sg19
S'Smoops'
p482
sg21
g22
sg23
S'0-2'
p483
sg25
g26
(S'\x07\xdf\x0b\x0e\x14!2\x00\x00\x00'
g27
(I-5
I0
S'-05:00'
p484
tRp485
(dp486
g31
g32
(I-1
I68400
I0
tRp487
sg34
I0
sg35
g484
sg36
I-5
sbtRp488
sg38
I3
sbag328
ag288
asg83
I2
sg84
I2
sg85
I138
sg86
I0
sba(i__main__
Player
p489
(dp490
g4
g5
(g6
g7
NtRp491
(dp492
g10
F1.4358842952383157
sg11
F0.051227962099493665
sbsg12
g423
sg14
(lp493
(i__main__
Match
p494
(dp495
g18
g459
sg19
g423
sg21
g22
sg23
S'2-0'
p496
sg25
g26
(S'\x07\xdf\x0b\x0e\x14;\x0f\x00\x00\x00'
g27
(I-5
I0
S'-05:00'
p497
tRp498
(dp499
g31
g32
(I-1
I68400
I0
tRp500
sg34
I0
sg35
g497
sg36
I-5
sbtRp501
sg38
I2
sba(i__main__
Match
p502
(dp503
g18
g423
sg19
S'Jacob'
p504
sg21
g22
sg23
S'2-0'
p505
sg25
g26
(S'\x07\xdf\x0b\x0e\x15\r\x1a\x00\x00\x00'
g27
(I-5
I0
S'-05:00'
p506
tRp507
(dp508
g31
g32
(I-1
I68400
I0
tRp509
sg34
I0
sg35
g506
sg36
I-5
sbtRp510
sg38
I-1
sba(i__main__
Match
p511
(dp512
g18
g423
sg19
g450
sg21
g22
sg23
S'0-2'
p513
sg25
g26
(S'\x07\xdf\x0b\x0e\x15\x15;\x00\x00\x00'
g27
(I-5
I0
S'-05:00'
p514
tRp515
(dp516
g31
g32
(I-1
I68400
I0
tRp517
sg34
I0
sg35
g514
sg36
I-5
sbtRp518
sg38
I-2
sba(i__main__
Match
p519
(dp520
g18
g423
sg19
g482
sg21
g22
sg23
S'0-2'
p521
sg25
g26
(S'\x07\xdf\x0b\x0e\x15 \x08\x00\x00\x00'
g27
(I-5
I0
S'-05:00'
p522
tRp523
(dp524
g31
g32
(I-1
I68400
I0
tRp525
sg34
I0
sg35
g522
sg36
I-5
sbtRp526
sg38
I-3
sbag421
asg83
I3
sg84
I2
sg85
I139
sg86
I0
sba(i__main__
Player
p527
(dp528
g4
g5
(g6
g7
NtRp529
(dp530
g10
F1.3681422521858702
sg11
F0.049407544279120932
sbsg12
g219
sg14
(lp531
(i__main__
Match
p532
(dp533
g18
g482
sg19
g219
sg21
g22
sg23
S'0-2'
p534
sg25
g26
(S'\x07\xdf\x0b\x0e\x133:\x00\x00\x00'
g27
(I-5
I0
S'-05:00'
p535
tRp536
(dp537
g31
g32
(I-1
I68400
I0
tRp538
sg34
I0
sg35
g535
sg36
I-5
sbtRp539
sg38
I1
sba(i__main__
Match
p540
(dp541
g18
g219
sg19
S'TylerX5'
p542
sg21
g22
sg23
S'1-2'
p543
sg25
g26
(S'\x07\xdf\x0b\x0e\x15\x05\x02\x00\x00\x00'
g27
(I-5
I0
S'-05:00'
p544
tRp545
(dp546
g31
g32
(I-1
I68400
I0
tRp547
sg34
I0
sg35
g544
sg36
I-5
sbtRp548
sg38
I-1
sba(i__main__
Match
p549
(dp550
g18
g219
sg19
g94
sg21
g22
sg23
S'1-2'
p551
sg25
g26
(S'\x07\xdf\x0b\x0e\x14;,\x00\x00\x00'
g27
(I-5
I0
S'-05:00'
p552
tRp553
(dp554
g31
g32
(I-1
I68400
I0
tRp555
sg34
I0
sg35
g552
sg36
I-5
sbtRp556
sg38
I-2
sba(i__main__
Match
p557
(dp558
g18
g219
sg19
g41
sg21
g22
sg23
S'1-2'
p559
sg25
g26
(S'\x07\xdf\x0b\x0e\x15\x1b\x13\x00\x00\x00'
g27
(I-5
I0
S'-05:00'
p560
tRp561
(dp562
g31
g32
(I-1
I68400
I0
tRp563
sg34
I0
sg35
g560
sg36
I-5
sbtRp564
sg38
I-3
sbag217
asg83
I3
sg84
I2
sg85
I140
sg86
I0
sba(i__main__
Player
p565
(dp566
g4
g5
(g6
g7
NtRp567
(dp568
g10
F1.1804322441732602
sg11
F0.043030991370797127
sbsg12
g103
sg14
(lp569
(i__main__
Match
p570
(dp571
g18
g103
sg19
g542
sg21
g22
sg23
S'2-0'
p572
sg25
g26
(S'\x07\xdf\x0b\x0e\x13,\x08\x00\x00\x00'
g27
(I-5
I0
S'-05:00'
p573
tRp574
(dp575
g31
g32
(I-1
I68400
I0
tRp576
sg34
I0
sg35
g573
sg36
I-5
sbtRp577
sg38
I2
sbag101
a(i__main__
Match
p578
(dp579
g18
g103
sg19
g20
sg21
g22
sg23
S'2-0'
p580
sg25
g26
(S'\x07\xdf\x0b\x0e\x15\t\x0e\x00\x00\x00'
g27
(I-5
I0
S'-05:00'
p581
tRp582
(dp583
g31
g32
(I-1
I68400
I0
tRp584
sg34
I0
sg35
g581
sg36
I-5
sbtRp585
sg38
I-3
sbag280
asg83
I2
sg84
I2
sg85
I141
sg86
I0
sba(i__main__
Player
p586
(dp587
g4
g5
(g6
g7
NtRp588
(dp589
g10
F1.1535227616471297
sg11
F0.043160217856478611
sbsg12
g361
sg14
(lp590
(i__main__
Match
p591
(dp592
g18
g482
sg19
g361
sg21
g22
sg23
S'1-2'
p593
sg25
g26
(S'\x07\xdf\x0b\x0e\x14\x11\x16\x00\x00\x00'
g27
(I-5
I0
S'-05:00'
p594
tRp595
(dp596
g31
g32
(I-1
I68400
I0
tRp597
sg34
I0
sg35
g594
sg36
I-5
sbtRp598
sg38
I2
sba(i__main__
Match
p599
(dp600
g18
g361
sg19
g473
sg21
g22
sg23
S'2-1'
p601
sg25
g26
(S"\x07\xdf\x0b\x0e\x14'\x06\x00\x00\x00"
g27
(I-5
I0
S'-05:00'
p602
tRp603
(dp604
g31
g32
(I-1
I68400
I0
tRp605
sg34
I0
sg35
g602
sg36
I-5
sbtRp606
sg38
I-2
sba(i__main__
Match
p607
(dp608
g18
g361
sg19
g459
sg21
g22
sg23
S'1-2'
p609
sg25
g26
(S'\x07\xdf\x0b\x0e\x15\x0c4\x00\x00\x00'
g27
(I-5
I0
S'-05:00'
p610
tRp611
(dp612
g31
g32
(I-1
I68400
I0
tRp613
sg34
I0
sg35
g610
sg36
I-5
sbtRp614
sg38
I-3
sbag359
asg83
I2
sg84
I2
sg85
I142
sg86
I0
sba(i__main__
Player
p615
(dp616
g4
g5
(g6
g7
NtRp617
(dp618
g10
F1.2451518521604821
sg11
F0.046600420919994452
sbsg12
g273
sg14
(lp619
(i__main__
Match
p620
(dp621
g18
g273
sg19
g414
sg21
g22
sg23
S'2-0'
p622
sg25
g26
(S'\x07\xdf\x0b\x0e\x1304\x00\x00\x00'
g27
(I-5
I0
S'-05:00'
p623
tRp624
(dp625
g31
g32
(I-1
I68400
I0
tRp626
sg34
I0
sg35
g623
sg36
I-5
sbtRp627
sg38
I1
sbag435
a(i__main__
Match
p628
(dp629
g18
g273
sg19
S'Zant'
p630
sg21
g22
sg23
S'2-0'
p631
sg25
g26
(S'\x07\xdf\x0b\x0e\x14\x18\x10\x00\x00\x00'
g27
(I-5
I0
S'-05:00'
p632
tRp633
(dp634
g31
g32
(I-1
I68400
I0
tRp635
sg34
I0
sg35
g632
sg36
I-5
sbtRp636
sg38
I-1
sba(i__main__
Match
p637
(dp638
g18
g273
sg19
g193
sg21
g22
sg23
S'1-2'
p639
sg25
g26
(S'\x07\xdf\x0b\x0e\x14#!\x00\x00\x00'
g27
(I-5
I0
S'-05:00'
p640
tRp641
(dp642
g31
g32
(I-1
I68400
I0
tRp643
sg34
I0
sg35
g640
sg36
I-5
sbtRp644
sg38
I-2
sbag271
asg83
I3
sg84
I2
sg85
I143
sg86
I0
sba(i__main__
Player
p645
(dp646
g4
g5
(g6
g7
NtRp647
(dp648
g10
F1.1085716376227042
sg11
F0.042651773218269143
sbsg12
g210
sg14
(lp649
(i__main__
Match
p650
(dp651
g18
g210
sg19
S'Tristan'
p652
sg21
g22
sg23
S'2-0'
p653
sg25
g26
(S'\x07\xdf\x0b\x0e\x14\x04"\x00\x00\x00'
g27
(I-5
I0
S'-05:00'
p654
tRp655
(dp656
g31
g32
(I-1
I68400
I0
tRp657
sg34
I0
sg35
g654
sg36
I-5
sbtRp658
sg38
I1
sbag255
a(i__main__
Match
p659
(dp660
g18
g210
sg19
g383
sg21
g22
sg23
S'2-0'
p661
sg25
g26
(S'\x07\xdf\x0b\x0e\x140\x1a\x00\x00\x00'
g27
(I-5
I0
S'-05:00'
p662
tRp663
(dp664
g31
g32
(I-1
I68400
I0
tRp665
sg34
I0
sg35
g662
sg36
I-5
sbtRp666
sg38
I-2
sbag208
asg83
I2
sg84
I2
sg85
I144
sg86
I0
sba(i__main__
Player
p667
(dp668
g4
g5
(g6
g7
NtRp669
(dp670
g10
F1.1006451342678616
sg11
F0.043193188162196937
sbsg12
g352
sg14
(lp671
(i__main__
Match
p672
(dp673
g18
g383
sg19
g352
sg21
g22
sg23
S'0-2'
p674
sg25
g26
(S'\x07\xdf\x0b\x0e\x131\x06\x00\x00\x00'
g27
(I-5
I0
S'-05:00'
p675
tRp676
(dp677
g31
g32
(I-1
I68400
I0
tRp678
sg34
I0
sg35
g675
sg36
I-5
sbtRp679
sg38
I1
sba(i__main__
Match
p680
(dp681
g18
g352
sg19
g312
sg21
g22
sg23
S'1-2'
p682
sg25
g26
(S'\x07\xdf\x0b\x0e\x14\x19\x05\x00\x00\x00'
g27
(I-5
I0
S'-05:00'
p683
tRp684
(dp685
g31
g32
(I-1
I68400
I0
tRp686
sg34
I0
sg35
g683
sg36
I-5
sbtRp687
sg38
I-1
sba(i__main__
Match
p688
(dp689
g18
g352
sg19
g405
sg21
g22
sg23
S'0-2'
p690
sg25
g26
(S'\x07\xdf\x0b\x0e\x14-\x18\x00\x00\x00'
g27
(I-5
I0
S'-05:00'
p691
tRp692
(dp693
g31
g32
(I-1
I68400
I0
tRp694
sg34
I0
sg35
g691
sg36
I-5
sbtRp695
sg38
I-2
sbag350
asg83
I2
sg84
I2
sg85
I145
sg86
I0
sba(i__main__
Player
p696
(dp697
g4
g5
(g6
g7
NtRp698
(dp699
g10
F1.1006451342678616
sg11
F0.043193188162196937
sbsg12
g414
sg14
(lp700
g620
a(i__main__
Match
p701
(dp702
g18
g414
sg19
g143
sg21
g22
sg23
S'0-2'
p703
sg25
g26
(S'\x07\xdf\x0b\x0e\x14\x18/\x00\x00\x00'
g27
(I-5
I0
S'-05:00'
p704
tRp705
(dp706
g31
g32
(I-1
I68400
I0
tRp707
sg34
I0
sg35
g704
sg36
I-5
sbtRp708
sg38
I-1
sba(i__main__
Match
p709
(dp710
g18
g414
sg19
g343
sg21
g22
sg23
S'1-2'
p711
sg25
g26
(S'\x07\xdf\x0b\x0e\x14-\x0c\x00\x00\x00'
g27
(I-5
I0
S'-05:00'
p712
tRp713
(dp714
g31
g32
(I-1
I68400
I0
tRp715
sg34
I0
sg35
g712
sg36
I-5
sbtRp716
sg38
I-2
sbag412
asg83
I2
sg84
I2
sg85
I146
sg86
I0
sba(i__main__
Player
p717
(dp718
g4
g5
(g6
g7
NtRp719
(dp720
g10
F1.0092260049440549
sg11
F0.03981770142668941
sbsg12
g482
sg14
(lp721
g532
ag591
ag480
ag519
asg83
I2
sg84
I2
sg85
I147
sg86
I0
sba(i__main__
Player
p722
(dp723
g4
g5
(g6
g7
NtRp724
(dp725
g10
F1.0255924489798849
sg11
F0.040982492332428587
sbsg12
g20
sg14
(lp726
(i__main__
Match
p727
(dp728
g18
g20
sg19
g504
sg21
g22
sg23
S'0-2'
p729
sg25
g26
(S'\x07\xdf\x0b\x0e\x13+4\x00\x00\x00'
g27
(I-5
I0
S'-05:00'
p730
tRp731
(dp732
g31
g32
(I-1
I68400
I0
tRp733
sg34
I0
sg35
g730
sg36
I-5
sbtRp734
sg38
I1
sbag16
a(i__main__
Match
p735
(dp736
g18
g20
sg19
S'BFC'
p737
sg21
g22
sg23
S'2-0'
p738
sg25
g26
(S'\x07\xdf\x0b\x0e\x14,7\x00\x00\x00'
g27
(I-5
I0
S'-05:00'
p739
tRp740
(dp741
g31
g32
(I-1
I68400
I0
tRp742
sg34
I0
sg35
g739
sg36
I-5
sbtRp743
sg38
I-2
sbag578
asg83
I2
sg84
I2
sg85
I148
sg86
I0
sba(i__main__
Player
p744
(dp745
g4
g5
(g6
g7
NtRp746
(dp747
g10
F0.93894063568984232
sg11
F0.039139514595598432
sbsg12
g383
sg14
(lp748
g672
ag381
a(i__main__
Match
p749
(dp750
g18
g383
sg19
S'Paradox'
p751
sg21
g22
sg23
S'2-1'
p752
sg25
g26
(S'\x07\xdf\x0b\x0e\x14 \x1c\x00\x00\x00'
g27
(I-5
I0
S'-05:00'
p753
tRp754
(dp755
g31
g32
(I-1
I68400
I0
tRp756
sg34
I0
sg35
g753
sg36
I-5
sbtRp757
sg38
I-1
sbag659
asg83
I2
sg84
I2
sg85
I149
sg86
I0
sba(i__main__
Player
p758
(dp759
g4
g5
(g6
g7
NtRp760
(dp761
g10
F0.77222849394108817
sg11
F0.033343457941004573
sbsg12
g41
sg14
(lp762
(i__main__
Match
p763
(dp764
g18
g41
sg19
S'Wiss'
p765
sg21
g22
sg23
S'2-1'
p766
sg25
g26
(S'\x07\xdf\x0b\x0e\x14\x15\x08\x00\x00\x00'
g27
(I-5
I0
S'-05:00'
p767
tRp768
(dp769
g31
g32
(I-1
I68400
I0
tRp770
sg34
I0
sg35
g767
sg36
I-5
sbtRp771
sg38
I2
sbag39
ag557
asg83
I1
sg84
I2
sg85
I150
sg86
I0
sba(i__main__
Player
p772
(dp773
g4
g5
(g6
g7
NtRp774
(dp775
g10
F0.76061879837889412
sg11
F0.033145434023776427
sbsg12
g459
sg14
(lp776
g494
ag457
ag607
asg83
I1
sg84
I2
sg85
I151
sg86
I0
sba(i__main__
Player
p777
(dp778
g4
g5
(g6
g7
NtRp779
(dp780
g10
F0.72969206867552694
sg11
F0.032819509629647706
sbsg12
g193
sg14
(lp781
(i__main__
Match
p782
(dp783
g18
g193
sg19
S'Pastor'
p784
sg21
g22
sg23
S'2-0'
p785
sg25
g26
(S'\x07\xdf\x0b\x0e\x13.*\x00\x00\x00'
g27
(I-5
I0
S'-05:00'
p786
tRp787
(dp788
g31
g32
(I-1
I68400
I0
tRp789
sg34
I0
sg35
g786
sg36
I-5
sbtRp790
sg38
I1
sbag191
ag637
asg83
I1
sg84
I2
sg85
I152
sg86
I0
sba(i__main__
Player
p791
(dp792
g4
g5
(g6
g7
NtRp793
(dp794
g10
F0.71841955207158914
sg11
F0.033127050351654717
sbsg12
g94
sg14
(lp795
(i__main__
Match
p796
(dp797
g18
g94
sg19
S'Zach'
p798
sg21
g22
sg23
S'0-2'
p799
sg25
g26
(S'\x07\xdf\x0b\x0e\x13,\x1e\x00\x00\x00'
g27
(I-5
I0
S'-05:00'
p800
tRp801
(dp802
g31
g32
(I-1
I68400
I0
tRp803
sg34
I0
sg35
g800
sg36
I-5
sbtRp804
sg38
I1
sbag92
ag549
asg83
I1
sg84
I2
sg85
I153
sg86
I0
sba(i__main__
Player
p805
(dp806
g4
g5
(g6
g7
NtRp807
(dp808
g10
F0.71841955207158914
sg11
F0.033127050351654717
sbsg12
g450
sg14
(lp809
(i__main__
Match
p810
(dp811
g18
g450
sg19
g737
sg21
g22
sg23
S'1-2'
p812
sg25
g26
(S'\x07\xdf\x0b\x0e\x13:\x16\x00\x00\x00'
g27
(I-5
I0
S'-05:00'
p813
tRp814
(dp815
g31
g32
(I-1
I68400
I0
tRp816
sg34
I0
sg35
g813
sg36
I-5
sbtRp817
sg38
I1
sbag448
ag511
asg83
I1
sg84
I2
sg85
I154
sg86
I0
sba(i__main__
Player
p818
(dp819
g4
g5
(g6
g7
NtRp820
(dp821
g10
F0.70731734642021593
sg11
F0.032950319866420143
sbsg12
g405
sg14
(lp822
g403
a(i__main__
Match
p823
(dp824
g18
g405
sg19
g652
sg21
g22
sg23
S'2-0'
p825
sg25
g26
(S'\x07\xdf\x0b\x0e\x14\x0c&\x00\x00\x00'
g27
(I-5
I0
S'-05:00'
p826
tRp827
(dp828
g31
g32
(I-1
I68400
I0
tRp829
sg34
I0
sg35
g826
sg36
I-5
sbtRp830
sg38
I-1
sbag688
asg83
I1
sg84
I2
sg85
I155
sg86
I0
sba(i__main__
Player
p831
(dp832
g4
g5
(g6
g7
NtRp833
(dp834
g10
F0.70731734642021593
sg11
F0.032950319866420143
sbsg12
g343
sg14
(lp835
g341
a(i__main__
Match
p836
(dp837
g18
g343
sg19
g784
sg21
g22
sg23
S'2-0'
p838
sg25
g26
(S'\x07\xdf\x0b\x0e\x14\x02;\x00\x00\x00'
g27
(I-5
I0
S'-05:00'
p839
tRp840
(dp841
g31
g32
(I-1
I68400
I0
tRp842
sg34
I0
sg35
g839
sg36
I-5
sbtRp843
sg38
I-1
sbag709
asg83
I1
sg84
I2
sg85
I156
sg86
I0
sba(i__main__
Player
p844
(dp845
g4
g5
(g6
g7
NtRp846
(dp847
g10
F0.70264130628203358
sg11
F0.032922538066071989
sbsg12
g737
sg14
(lp848
g810
a(i__main__
Match
p849
(dp850
g18
g737
sg19
g765
sg21
g22
sg23
S'1-2'
p851
sg25
g26
(S'\x07\xdf\x0b\x0e\x14$#\x00\x00\x00'
g27
(I-5
I0
S'-05:00'
p852
tRp853
(dp854
g31
g32
(I-1
I68400
I0
tRp855
sg34
I0
sg35
g852
sg36
I-5
sbtRp856
sg38
I-1
sbag735
asg83
I1
sg84
I2
sg85
I157
sg86
I0
sba(i__main__
Player
p857
(dp858
g4
g5
(g6
g7
NtRp859
(dp860
g10
F0.69400441835575688
sg11
F0.032937708534823716
sbsg12
g143
sg14
(lp861
(i__main__
Match
p862
(dp863
g18
g143
sg19
g630
sg21
g22
sg23
S'2-1'
p864
sg25
g26
(S'\x07\xdf\x0b\x0e\x133\x0f\x00\x00\x00'
g27
(I-5
I0
S'-05:00'
p865
tRp866
(dp867
g31
g32
(I-1
I68400
I0
tRp868
sg34
I0
sg35
g865
sg36
I-5
sbtRp869
sg38
I1
sbag141
ag701
asg83
I1
sg84
I2
sg85
I158
sg86
I0
sba(i__main__
Player
p870
(dp871
g4
g5
(g6
g7
NtRp872
(dp873
g10
F0.69400441835575688
sg11
F0.032937708534823716
sbsg12
g312
sg14
(lp874
(i__main__
Match
p875
(dp876
g18
g312
sg19
g751
sg21
g22
sg23
S'1-2'
p877
sg25
g26
(S'\x07\xdf\x0b\x0e\x134\x11\x00\x00\x00'
g27
(I-5
I0
S'-05:00'
p878
tRp879
(dp880
g31
g32
(I-1
I68400
I0
tRp881
sg34
I0
sg35
g878
sg36
I-5
sbtRp882
sg38
I1
sbag310
ag680
asg83
I1
sg84
I2
sg85
I159
sg86
I0
sba(i__main__
Player
p883
(dp884
g4
g5
(g6
g7
NtRp885
(dp886
g10
F0.68151566675766939
sg11
F0.032787595619203851
sbsg12
g473
sg14
(lp887
g471
a(i__main__
Match
p888
(dp889
g18
g473
sg19
g798
sg21
g22
sg23
S'2-0'
p890
sg25
g26
(S'\x07\xdf\x0b\x0e\x14\x1b+\x00\x00\x00'
g27
(I-5
I0
S'-05:00'
p891
tRp892
(dp893
g31
g32
(I-1
I68400
I0
tRp894
sg34
I0
sg35
g891
sg36
I-5
sbtRp895
sg38
I-1
sbag599
asg83
I1
sg84
I2
sg85
I160
sg86
I0
sba(i__main__
Player
p896
(dp897
g4
g5
(g6
g7
NtRp898
(dp899
g10
F0.45002901154739611
sg11
F0.025244236136323202
sbsg12
g751
sg14
(lp900
g875
ag749
asg83
I0
sg84
I2
sg85
I161
sg86
I0
sba(i__main__
Player
p901
(dp902
g4
g5
(g6
g7
NtRp903
(dp904
g10
F0.45002901154739611
sg11
F0.025244236136323202
sbsg12
g630
sg14
(lp905
g862
ag628
asg83
I0
sg84
I2
sg85
I162
sg86
I0
sba(i__main__
Player
p906
(dp907
g4
g5
(g6
g7
NtRp908
(dp909
g10
F0.43475223154960824
sg11
F0.025683468328650032
sbsg12
g542
sg14
(lp910
g570
ag540
asg83
I0
sg84
I2
sg85
I163
sg86
I0
sba(i__main__
Player
p911
(dp912
g4
g5
(g6
g7
NtRp913
(dp914
g10
F0.43475223154960824
sg11
F0.025683468328650032
sbsg12
g765
sg14
(lp915
g763
ag849
asg83
I0
sg84
I2
sg85
I164
sg86
I0
sba(i__main__
Player
p916
(dp917
g4
g5
(g6
g7
NtRp918
(dp919
g10
F0.43475223154960824
sg11
F0.025683468328650032
sbsg12
g504
sg14
(lp920
g727
ag502
asg83
I0
sg84
I2
sg85
I165
sg86
I0
sba(i__main__
Player
p921
(dp922
g4
g5
(g6
g7
NtRp923
(dp924
g10
F0.43475223154960824
sg11
F0.025683468328650032
sbsg12
g798
sg14
(lp925
g796
ag888
asg83
I0
sg84
I2
sg85
I166
sg86
I0
sba(i__main__
Player
p926
(dp927
g4
g5
(g6
g7
NtRp928
(dp929
g10
F0.43475223154960824
sg11
F0.025683468328650032
sbsg12
g784
sg14
(lp930
g782
ag836
asg83
I0
sg84
I2
sg85
I167
sg86
I0
sba(i__main__
Player
p931
(dp932
g4
g5
(g6
g7
NtRp933
(dp934
g10
F0.43475223154960824
sg11
F0.025683468328650032
sbsg12
g652
sg14
(lp935
g650
ag823
asg83
I0
sg84
I2
sg85
I168
sg86
I0
sba.